; Function Attrs: nounwind uwtable
define void @Cec_ManPatComputePattern2_rec(ptr noundef readonly captures(none) %0, ptr noundef %1, ptr noundef captures(none) %2) local_unnamed_addr #0 {
  %4 = getelementptr inbounds nuw i8, ptr %0, i64 616
  %5 = getelementptr i8, ptr %0, i64 32
  %6 = getelementptr inbounds nuw i8, ptr %0, i64 176
  %7 = load ptr, ptr %4, align 8, !tbaa !3
  %.val.i31 = load ptr, ptr %5, align 8, !tbaa !28
  %8 = ptrtoint ptr %1 to i64
  %9 = ptrtoint ptr %.val.i31 to i64
  %10 = sub i64 %8, %9
  %11 = sdiv exact i64 %10, 12
  %sext.i32 = shl i64 %11, 32
  %12 = ashr exact i64 %sext.i32, 30
  %13 = getelementptr inbounds i8, ptr %7, i64 %12
  %14 = load i32, ptr %13, align 4, !tbaa !29
  %15 = load i32, ptr %6, align 8, !tbaa !30
  %.not33 = icmp eq i32 %14, %15
  br i1 %.not33, label %.loopexit, label %.lr.ph

.lr.ph:                                           ; preds = %3, %tailrecurse.backedge
  %.val.i36 = phi ptr [ %.val.i, %tailrecurse.backedge ], [ %.val.i31, %3 ]
  %16 = phi ptr [ %67, %tailrecurse.backedge ], [ %7, %3 ]
  %17 = phi i32 [ %75, %tailrecurse.backedge ], [ %15, %3 ]
  %18 = phi ptr [ %73, %tailrecurse.backedge ], [ %13, %3 ]
  %.tr2934 = phi ptr [ %.tr29.be, %tailrecurse.backedge ], [ %1, %3 ]
  store i32 %17, ptr %18, align 4, !tbaa !29
  %.val = load i64, ptr %.tr2934, align 4
  %19 = and i64 %.val, 2684354559
  %narrow.i.not = icmp eq i64 %19, 2684354559
  %20 = and i64 %.val, 4611686018427387904
  %21 = icmp eq i64 %20, 0
  br i1 %narrow.i.not, label %22, label %57

22:                                               ; preds = %.lr.ph
  %23 = zext i1 %21 to i32
  %sh.diff = lshr i64 %.val, 31
  %tr.sh.diff = trunc i64 %sh.diff to i32
  %24 = and i32 %tr.sh.diff, 1073741822
  %25 = or disjoint i32 %24, %23
  %26 = getelementptr inbounds nuw i8, ptr %2, i64 4
  %27 = load i32, ptr %26, align 4, !tbaa !31
  %28 = load i32, ptr %2, align 8, !tbaa !32
  %29 = icmp eq i32 %27, %28
  br i1 %29, label %30, label %.Vec_IntGrow.exit10_crit_edge.i

.Vec_IntGrow.exit10_crit_edge.i:                  ; preds = %22
  %.phi.trans.insert.i = getelementptr inbounds nuw i8, ptr %2, i64 8
  %.pre.i = load ptr, ptr %.phi.trans.insert.i, align 8, !tbaa !33
  br label %Vec_IntPush.exit

30:                                               ; preds = %22
  %31 = icmp slt i32 %27, 16
  br i1 %31, label %32, label %40

32:                                               ; preds = %30
  %33 = getelementptr inbounds nuw i8, ptr %2, i64 8
  %34 = load ptr, ptr %33, align 8, !tbaa !33
  %.not9.i.i = icmp eq ptr %34, null
  br i1 %.not9.i.i, label %37, label %35

35:                                               ; preds = %32
  %36 = tail call dereferenceable_or_null(64) ptr @realloc(ptr noundef nonnull %34, i64 noundef 64) #19
  br label %Vec_IntGrow.exit.i

37:                                               ; preds = %32
  %38 = tail call noalias dereferenceable_or_null(64) ptr @malloc(i64 noundef 64) #20
  br label %Vec_IntGrow.exit.i

Vec_IntGrow.exit.i:                               ; preds = %37, %35
  %39 = phi ptr [ %36, %35 ], [ %38, %37 ]
  store ptr %39, ptr %33, align 8, !tbaa !33
  store i32 16, ptr %2, align 8, !tbaa !32
  br label %Vec_IntPush.exit

40:                                               ; preds = %30
  %41 = shl nuw nsw i32 %27, 1
  %42 = getelementptr inbounds nuw i8, ptr %2, i64 8
  %43 = load ptr, ptr %42, align 8, !tbaa !33
  %.not9.i9.i = icmp eq ptr %43, null
  %44 = zext nneg i32 %41 to i64
  %45 = shl nuw nsw i64 %44, 2
  br i1 %.not9.i9.i, label %48, label %46

46:                                               ; preds = %40
  %47 = tail call ptr @realloc(ptr noundef nonnull %43, i64 noundef %45) #19
  br label %50

48:                                               ; preds = %40
  %49 = tail call noalias ptr @malloc(i64 noundef %45) #20
  br label %50

50:                                               ; preds = %48, %46
  %51 = phi ptr [ %47, %46 ], [ %49, %48 ]
  store ptr %51, ptr %42, align 8, !tbaa !33
  store i32 %41, ptr %2, align 8, !tbaa !32
  br label %Vec_IntPush.exit

Vec_IntPush.exit:                                 ; preds = %.Vec_IntGrow.exit10_crit_edge.i, %Vec_IntGrow.exit.i, %50
  %52 = phi ptr [ %.pre.i, %.Vec_IntGrow.exit10_crit_edge.i ], [ %51, %50 ], [ %39, %Vec_IntGrow.exit.i ]
  %53 = load i32, ptr %26, align 4, !tbaa !31
  %54 = add nsw i32 %53, 1
  store i32 %54, ptr %26, align 4, !tbaa !31
  %55 = sext i32 %53 to i64
  %56 = getelementptr inbounds i32, ptr %52, i64 %55
  store i32 %25, ptr %56, align 4, !tbaa !29
  br label %.loopexit

57:                                               ; preds = %.lr.ph
  br i1 %21, label %76, label %58

58:                                               ; preds = %57
  %59 = and i64 %.val, 536870911
  %60 = sub nsw i64 0, %59
  %61 = getelementptr inbounds %struct.Gia_Obj_t_, ptr %.tr2934, i64 %60
  tail call void @Cec_ManPatComputePattern2_rec(ptr noundef nonnull %0, ptr noundef nonnull %61, ptr noundef %2)
  %62 = load i64, ptr %.tr2934, align 4
  %63 = lshr i64 %62, 32
  %64 = and i64 %63, 536870911
  %65 = sub nsw i64 0, %64
  %66 = getelementptr inbounds %struct.Gia_Obj_t_, ptr %.tr2934, i64 %65
  %.pre = load ptr, ptr %4, align 8, !tbaa !3
  %.val.i.pre = load ptr, ptr %5, align 8, !tbaa !28
  br label %tailrecurse.backedge

tailrecurse.backedge:                             ; preds = %58, %87, %76
  %.val.i = phi ptr [ %.val.i.pre, %58 ], [ %.val.i36, %87 ], [ %.val.i36, %76 ]
  %67 = phi ptr [ %.pre, %58 ], [ %16, %87 ], [ %16, %76 ]
  %.tr29.be = phi ptr [ %66, %58 ], [ %90, %87 ], [ %80, %76 ]
  %68 = ptrtoint ptr %.tr29.be to i64
  %69 = ptrtoint ptr %.val.i to i64
  %70 = sub i64 %68, %69
  %71 = sdiv exact i64 %70, 12
  %sext.i = shl i64 %71, 32
  %72 = ashr exact i64 %sext.i, 30
  %73 = getelementptr inbounds i8, ptr %67, i64 %72
  %74 = load i32, ptr %73, align 4, !tbaa !29
  %75 = load i32, ptr %6, align 8, !tbaa !30
  %.not = icmp eq i32 %74, %75
  br i1 %.not, label %.loopexit, label %.lr.ph

76:                                               ; preds = %57
  %77 = lshr i64 %.val, 32
  %78 = and i64 %77, 536870911
  %79 = sub nsw i64 0, %78
  %80 = getelementptr inbounds %struct.Gia_Obj_t_, ptr %.tr2934, i64 %79
  %81 = load i64, ptr %80, align 4
  %82 = lshr i64 %81, 62
  %83 = lshr i64 %.val, 61
  %84 = xor i64 %82, %83
  %85 = and i64 %84, 1
  %86 = icmp eq i64 %85, 0
  br i1 %86, label %tailrecurse.backedge, label %87

87:                                               ; preds = %76
  %88 = and i64 %.val, 536870911
  %89 = sub nsw i64 0, %88
  %90 = getelementptr inbounds %struct.Gia_Obj_t_, ptr %.tr2934, i64 %89
  br label %tailrecurse.backedge

.loopexit:                                        ; preds = %tailrecurse.backedge, %3, %Vec_IntPush.exit
  ret void
}